target datalayout = "e-m:e-p270:32:32-p271:32:32-p272:64:64-i64:64-i128:128-f80:128-n8:16:32:64-S128"
target triple = "x86_64-pc-linux-gnu"

; Function Attrs: alwaysinline nounwind willreturn memory(none) uwtable
define internal i32 @av_clip_intp2_c(i32 noundef %0, i32 noundef %1) #4 {
  %3 = alloca i32, align 4
  %4 = alloca i32, align 4
  %5 = alloca i32, align 4
  store i32 %0, ptr %4, align 4, !tbaa !34
  store i32 %1, ptr %5, align 4, !tbaa !34
  %6 = load i32, ptr %4, align 4, !tbaa !34
  %7 = load i32, ptr %5, align 4, !tbaa !34
  %8 = shl i32 1, %7
  %9 = add i32 %6, %8
  %10 = load i32, ptr %5, align 4, !tbaa !34
  %11 = shl i32 2, %10
  %12 = sub i32 %11, 1
  %13 = xor i32 %12, -1
  %14 = and i32 %9, %13
  %15 = icmp ne i32 %14, 0
  br i1 %15, label %16, label %23

16:                                               ; preds = %2
  %17 = load i32, ptr %4, align 4, !tbaa !34
  %18 = ashr i32 %17, 31
  %19 = load i32, ptr %5, align 4, !tbaa !34
  %20 = shl i32 1, %19
  %21 = sub nsw i32 %20, 1
  %22 = xor i32 %18, %21
  store i32 %22, ptr %3, align 4
  br label %25

23:                                               ; preds = %2
  %24 = load i32, ptr %4, align 4, !tbaa !34
  store i32 %24, ptr %3, align 4
  br label %25

25:                                               ; preds = %23, %16
  %26 = load i32, ptr %3, align 4
  ret i32 %26
}

; Function Attrs: inlinehint nounwind uwtable
define internal i32 @clip23(i32 noundef %0) #3 {
  %2 = alloca i32, align 4
  store i32 %0, ptr %2, align 4, !tbaa !34
  %3 = load i32, ptr %2, align 4, !tbaa !34
  %4 = call i32 @av_clip_intp2_c(i32 noundef %3, i32 noundef 23) #8
  ret i32 %4
}

; Function Attrs: nounwind uwtable
define internal void @decode_hf_c(ptr noundef %0, ptr noundef %1, ptr noundef %2, ptr noundef %3, i64 noundef %4, i64 noundef %5, i64 noundef %6, i64 noundef %7) #1 {
  %9 = alloca ptr, align 8
  %10 = alloca ptr, align 8
  %11 = alloca ptr, align 8
  %12 = alloca ptr, align 8
  %13 = alloca i64, align 8
  %14 = alloca i64, align 8
  %15 = alloca i64, align 8
  %16 = alloca i64, align 8
  %17 = alloca i32, align 4
  %18 = alloca i32, align 4
  %19 = alloca ptr, align 8
  %20 = alloca i32, align 4
  store ptr %0, ptr %9, align 8, !tbaa !25
  store ptr %1, ptr %10, align 8, !tbaa !28
  store ptr %2, ptr %11, align 8, !tbaa !30
  store ptr %3, ptr %12, align 8, !tbaa !28
  store i64 %4, ptr %13, align 8, !tbaa !32
  store i64 %5, ptr %14, align 8, !tbaa !32
  store i64 %6, ptr %15, align 8, !tbaa !32
  store i64 %7, ptr %16, align 8, !tbaa !32
  call void @llvm.lifetime.start.p0(i64 4, ptr %17) #7
  call void @llvm.lifetime.start.p0(i64 4, ptr %18) #7
  %21 = load i64, ptr %13, align 8, !tbaa !32
  %22 = trunc i64 %21 to i32
  store i32 %22, ptr %17, align 4, !tbaa !34
  br label %23

23:                                               ; preds = %75, %8
  %24 = load i32, ptr %17, align 4, !tbaa !34
  %25 = sext i32 %24 to i64
  %26 = load i64, ptr %14, align 8, !tbaa !32
  %27 = icmp slt i64 %25, %26
  br i1 %27, label %28, label %78

28:                                               ; preds = %23
  call void @llvm.lifetime.start.p0(i64 8, ptr %19) #7
  %29 = load ptr, ptr %11, align 8, !tbaa !30
  %30 = load ptr, ptr %10, align 8, !tbaa !28
  %31 = load i32, ptr %17, align 4, !tbaa !34
  %32 = sext i32 %31 to i64
  %33 = getelementptr inbounds i32, ptr %30, i64 %32
  %34 = load i32, ptr %33, align 4, !tbaa !34
  %35 = sext i32 %34 to i64
  %36 = getelementptr inbounds [32 x i8], ptr %29, i64 %35
  %37 = getelementptr inbounds [32 x i8], ptr %36, i64 0, i64 0
  store ptr %37, ptr %19, align 8, !tbaa !30
  call void @llvm.lifetime.start.p0(i64 4, ptr %20) #7
  %38 = load ptr, ptr %12, align 8, !tbaa !28
  %39 = load i32, ptr %17, align 4, !tbaa !34
  %40 = sext i32 %39 to i64
  %41 = getelementptr inbounds [2 x i32], ptr %38, i64 %40
  %42 = getelementptr inbounds [2 x i32], ptr %41, i64 0, i64 0
  %43 = load i32, ptr %42, align 4, !tbaa !34
  store i32 %43, ptr %20, align 4, !tbaa !34
  store i32 0, ptr %18, align 4, !tbaa !34
  br label %44

44:                                               ; preds = %71, %28
  %45 = load i32, ptr %18, align 4, !tbaa !34
  %46 = sext i32 %45 to i64
  %47 = load i64, ptr %16, align 8, !tbaa !32
  %48 = icmp slt i64 %46, %47
  br i1 %48, label %49, label %74

49:                                               ; preds = %44
  %50 = load ptr, ptr %19, align 8, !tbaa !30
  %51 = load i32, ptr %18, align 4, !tbaa !34
  %52 = sext i32 %51 to i64
  %53 = getelementptr inbounds i8, ptr %50, i64 %52
  %54 = load i8, ptr %53, align 1, !tbaa !36
  %55 = sext i8 %54 to i32
  %56 = load i32, ptr %20, align 4, !tbaa !34
  %57 = mul nsw i32 %55, %56
  %58 = add nsw i32 %57, 8
  %59 = ashr i32 %58, 4
  %60 = call i32 @clip23(i32 noundef %59)
  %61 = load ptr, ptr %9, align 8, !tbaa !25
  %62 = load i32, ptr %17, align 4, !tbaa !34
  %63 = sext i32 %62 to i64
  %64 = getelementptr inbounds ptr, ptr %61, i64 %63
  %65 = load ptr, ptr %64, align 8, !tbaa !28
  %66 = load i32, ptr %18, align 4, !tbaa !34
  %67 = sext i32 %66 to i64
  %68 = load i64, ptr %15, align 8, !tbaa !32
  %69 = add nsw i64 %67, %68
  %70 = getelementptr inbounds i32, ptr %65, i64 %69
  store i32 %60, ptr %70, align 4, !tbaa !34
  br label %71

71:                                               ; preds = %49
  %72 = load i32, ptr %18, align 4, !tbaa !34
  %73 = add nsw i32 %72, 1
  store i32 %73, ptr %18, align 4, !tbaa !34
  br label %44, !llvm.loop !37

74:                                               ; preds = %44
  call void @llvm.lifetime.end.p0(i64 4, ptr %20) #7
  call void @llvm.lifetime.end.p0(i64 8, ptr %19) #7
  br label %75

75:                                               ; preds = %74
  %76 = load i32, ptr %17, align 4, !tbaa !34
  %77 = add nsw i32 %76, 1
  store i32 %77, ptr %17, align 4, !tbaa !34
  br label %23, !llvm.loop !39

78:                                               ; preds = %23
  call void @llvm.lifetime.end.p0(i64 4, ptr %18) #7
  call void @llvm.lifetime.end.p0(i64 4, ptr %17) #7
  ret void
}