; Function Attrs: nofree norecurse nosync nounwind memory(write, argmem: readwrite, inaccessiblemem: none) uwtable
define internal void @decode_hf_c(ptr noundef readonly captures(none) %0, ptr noundef readonly captures(none) %1, ptr noundef readonly captures(none) %2, ptr noundef readonly captures(none) %3, i64 noundef %4, i64 noundef %5, i64 noundef %6, i64 noundef %7) #1 {
  %sext = shl i64 %4, 32
  %9 = ashr exact i64 %sext, 32
  %10 = icmp sgt i64 %5, %9
  %11 = icmp sgt i64 %7, 0
  %or.cond = and i1 %10, %11
  br i1 %or.cond, label %.lr.ph.us, label %._crit_edge25

.lr.ph.us:                                        ; preds = %8, %._crit_edge.us
  %indvars.iv29 = phi i64 [ %indvars.iv.next30, %._crit_edge.us ], [ %9, %8 ]
  %12 = getelementptr inbounds i32, ptr %1, i64 %indvars.iv29
  %13 = load i32, ptr %12, align 4, !tbaa !23
  %14 = sext i32 %13 to i64
  %15 = getelementptr inbounds [32 x i8], ptr %2, i64 %14
  %16 = getelementptr inbounds [2 x i32], ptr %3, i64 %indvars.iv29
  %17 = load i32, ptr %16, align 4, !tbaa !23
  %18 = getelementptr inbounds ptr, ptr %0, i64 %indvars.iv29
  %19 = load ptr, ptr %18, align 8, !tbaa !25
  %20 = getelementptr i32, ptr %19, i64 %6
  br label %21

21:                                               ; preds = %.lr.ph.us, %21
  %indvars.iv = phi i64 [ 0, %.lr.ph.us ], [ %indvars.iv.next, %21 ]
  %22 = getelementptr inbounds nuw i8, ptr %15, i64 %indvars.iv
  %23 = load i8, ptr %22, align 1, !tbaa !27
  %24 = sext i8 %23 to i32
  %25 = mul nsw i32 %17, %24
  %26 = add nsw i32 %25, 8
  %27 = ashr i32 %26, 4
  %28 = tail call i32 @llvm.smax.i32(i32 %27, i32 -8388608)
  %.0.i.i.us = tail call range(i32 -8388608, 8388608) i32 @llvm.smin.i32(i32 %28, i32 8388607)
  %29 = getelementptr i32, ptr %20, i64 %indvars.iv
  store i32 %.0.i.i.us, ptr %29, align 4, !tbaa !23
  %indvars.iv.next = add nuw nsw i64 %indvars.iv, 1
  %exitcond.not = icmp eq i64 %indvars.iv.next, %7
  br i1 %exitcond.not, label %._crit_edge.us, label %21, !llvm.loop !28

._crit_edge.us:                                   ; preds = %21
  %indvars.iv.next30 = add nsw i64 %indvars.iv29, 1
  %30 = icmp sgt i64 %5, %indvars.iv.next30
  br i1 %30, label %.lr.ph.us, label %._crit_edge25, !llvm.loop !30

._crit_edge25:                                    ; preds = %._crit_edge.us, %8
  ret void
}